target datalayout = "e-m:e-p270:32:32-p271:32:32-p272:64:64-i64:64-i128:128-f80:128-n8:16:32:64-S128"
target triple = "x86_64-pc-linux-gnu"

%struct.lua_TValue = type { %union.Value, [1 x i32], i32 }
%union.Value = type { ptr }
%struct.LuaTable = type { i8, i8, i8, i8, i8, i8, i8, i8, i32, %union.anon.0, ptr, ptr, ptr, ptr }
%union.anon.0 = type { i32 }

; Function Attrs: mustprogress uwtable
define hidden noundef ptr @_Z10luaT_gettmP8LuaTable3TMSP7TString(ptr noundef %0, i32 noundef %1, ptr noundef %2) #0 {
  %4 = alloca ptr, align 8
  %5 = alloca ptr, align 8
  %6 = alloca i32, align 4
  %7 = alloca ptr, align 8
  %8 = alloca ptr, align 8
  %9 = alloca i32, align 4
  store ptr %0, ptr %5, align 8, !tbaa !30
  store i32 %1, ptr %6, align 4, !tbaa !31
  store ptr %2, ptr %7, align 8, !tbaa !24
  call void @llvm.lifetime.start.p0(i64 8, ptr %8) #4
  %10 = load ptr, ptr %5, align 8, !tbaa !30
  %11 = load ptr, ptr %7, align 8, !tbaa !24
  %12 = call noundef ptr @_Z11luaH_getstrP8LuaTableP7TString(ptr noundef %10, ptr noundef %11)
  store ptr %12, ptr %8, align 8, !tbaa !33
  %13 = load ptr, ptr %8, align 8, !tbaa !33
  %14 = getelementptr inbounds nuw %struct.lua_TValue, ptr %13, i32 0, i32 2
  %15 = load i32, ptr %14, align 4, !tbaa !34
  %16 = icmp eq i32 %15, 0
  br i1 %16, label %17, label %28

17:                                               ; preds = %3
  %18 = load i32, ptr %6, align 4, !tbaa !31
  %19 = shl i32 1, %18
  %20 = trunc i32 %19 to i8
  %21 = zext i8 %20 to i32
  %22 = load ptr, ptr %5, align 8, !tbaa !30
  %23 = getelementptr inbounds nuw %struct.LuaTable, ptr %22, i32 0, i32 3
  %24 = load i8, ptr %23, align 1, !tbaa !36
  %25 = zext i8 %24 to i32
  %26 = or i32 %25, %21
  %27 = trunc i32 %26 to i8
  store i8 %27, ptr %23, align 1, !tbaa !36
  store ptr null, ptr %4, align 8
  store i32 1, ptr %9, align 4
  br label %30

28:                                               ; preds = %3
  %29 = load ptr, ptr %8, align 8, !tbaa !33
  store ptr %29, ptr %4, align 8
  store i32 1, ptr %9, align 4
  br label %30

30:                                               ; preds = %28, %17
  call void @llvm.lifetime.end.p0(i64 8, ptr %8) #4
  %31 = load ptr, ptr %4, align 8
  ret ptr %31
}