; Function Attrs: mustprogress uwtable
define hidden noundef ptr @_Z10luaT_gettmP8LuaTable3TMSP7TString(ptr noundef %0, i32 noundef %1, ptr noundef %2) local_unnamed_addr #0 {
  %4 = tail call noundef ptr @_Z11luaH_getstrP8LuaTableP7TString(ptr noundef %0, ptr noundef %2)
  %5 = getelementptr inbounds nuw i8, ptr %4, i64 12
  %6 = load i32, ptr %5, align 4, !tbaa !27
  %7 = icmp eq i32 %6, 0
  br i1 %7, label %8, label %14

8:                                                ; preds = %3
  %9 = shl nuw i32 1, %1
  %10 = getelementptr inbounds nuw i8, ptr %0, i64 3
  %11 = load i8, ptr %10, align 1, !tbaa !29
  %12 = trunc i32 %9 to i8
  %13 = or i8 %11, %12
  store i8 %13, ptr %10, align 1, !tbaa !29
  br label %14

14:                                               ; preds = %3, %8
  %.0 = phi ptr [ null, %8 ], [ %4, %3 ]
  ret ptr %.0
}